; Function Attrs: nofree nounwind uwtable
define range(i64 0, 4294967296) i64 @zfp_encode_block_strided_double_4(ptr noundef readonly captures(none) %0, ptr noundef readonly captures(none) %1, i64 noundef %2, i64 noundef %3, i64 noundef %4, i64 noundef %5) local_unnamed_addr #0 {
  %7 = alloca [256 x double], align 256
  call void @llvm.lifetime.start.p0(i64 2048, ptr nonnull %7) #11
  %8 = shl nsw i64 %2, 2
  %9 = sub nsw i64 %3, %8
  %10 = shl nsw i64 %3, 2
  %11 = sub nsw i64 %4, %10
  %12 = shl nsw i64 %4, 2
  %13 = sub nsw i64 %5, %12
  br label %.preheader29.i

.preheader29.i:                                   ; preds = %25, %6
  %.041.i = phi i32 [ 0, %6 ], [ %26, %25 ]
  %.02340.i = phi ptr [ %7, %6 ], [ %16, %25 ]
  %.02439.i = phi ptr [ %1, %6 ], [ %27, %25 ]
  br label %.preheader28.i

.preheader28.i:                                   ; preds = %22, %.preheader29.i
  %.02038.i = phi i32 [ 0, %.preheader29.i ], [ %23, %22 ]
  %.137.i = phi ptr [ %.02340.i, %.preheader29.i ], [ %16, %22 ]
  %.12536.i = phi ptr [ %.02439.i, %.preheader29.i ], [ %24, %22 ]
  br label %.preheader.i

.preheader.i:                                     ; preds = %19, %.preheader28.i
  %.02135.i = phi i32 [ 0, %.preheader28.i ], [ %20, %19 ]
  %.234.i = phi ptr [ %.137.i, %.preheader28.i ], [ %16, %19 ]
  %.22633.i = phi ptr [ %.12536.i, %.preheader28.i ], [ %21, %19 ]
  br label %14

14:                                               ; preds = %14, %.preheader.i
  %.02232.i = phi i32 [ 0, %.preheader.i ], [ %17, %14 ]
  %.331.i = phi ptr [ %.234.i, %.preheader.i ], [ %16, %14 ]
  %.32730.i = phi ptr [ %.22633.i, %.preheader.i ], [ %18, %14 ]
  %15 = load double, ptr %.32730.i, align 8, !tbaa !12
  %16 = getelementptr inbounds nuw i8, ptr %.331.i, i64 8
  store double %15, ptr %.331.i, align 8, !tbaa !12
  %17 = add nuw nsw i32 %.02232.i, 1
  %18 = getelementptr inbounds double, ptr %.32730.i, i64 %2
  %exitcond.not.i = icmp eq i32 %17, 4
  br i1 %exitcond.not.i, label %19, label %14

19:                                               ; preds = %14
  %20 = add nuw nsw i32 %.02135.i, 1
  %21 = getelementptr inbounds double, ptr %18, i64 %9
  %exitcond45.not.i = icmp eq i32 %20, 4
  br i1 %exitcond45.not.i, label %22, label %.preheader.i

22:                                               ; preds = %19
  %23 = add nuw nsw i32 %.02038.i, 1
  %24 = getelementptr inbounds double, ptr %21, i64 %11
  %exitcond46.not.i = icmp eq i32 %23, 4
  br i1 %exitcond46.not.i, label %25, label %.preheader28.i

25:                                               ; preds = %22
  %26 = add nuw nsw i32 %.041.i, 1
  %27 = getelementptr inbounds double, ptr %24, i64 %13
  %exitcond47.not.i = icmp eq i32 %26, 4
  br i1 %exitcond47.not.i, label %gather_double_4.exit, label %.preheader29.i

gather_double_4.exit:                             ; preds = %25
  %28 = call i64 @zfp_encode_block_double_4(ptr noundef %0, ptr noundef nonnull %7)
  call void @llvm.lifetime.end.p0(i64 2048, ptr nonnull %7) #11
  ret i64 %28
}